target datalayout = "e-m:e-p270:32:32-p271:32:32-p272:64:64-i64:64-i128:128-f80:128-n8:16:32:64-S128"
target triple = "x86_64-pc-linux-gnu"

%"class.cv::Size_" = type { i32, i32 }
%"class.opencv_test::RenderTestFTexts" = type { %"class.opencv_test::TestPerfParams" }
%"class.opencv_test::TestPerfParams" = type { %"class.perf::TestBaseWithParam", %"class.opencv_test::TestFunctional" }
%"class.perf::TestBaseWithParam" = type { %"class.perf::TestBase", %"class.testing::WithParamInterface" }
%"class.perf::TestBase" = type { %"class.testing::Test", %"class.std::vector", %"class.std::vector", i32, %"class.std::vector.0", i64, i64, i64, i32, i32, i32, i32, i32, [4 x i8], %"struct.perf::performance_metrics", i8, %"class.perf::TestBase::_declareHelper" }
%"class.testing::Test" = type { ptr, %"class.testing::internal::scoped_ptr" }
%"class.testing::internal::scoped_ptr" = type { ptr }
%"class.std::vector" = type { %"struct.std::_Vector_base" }
%"struct.std::_Vector_base" = type { %"struct.std::_Vector_base<std::pair<int, cv::Size_<int>>, std::allocator<std::pair<int, cv::Size_<int>>>>::_Vector_impl" }
%"struct.std::_Vector_base<std::pair<int, cv::Size_<int>>, std::allocator<std::pair<int, cv::Size_<int>>>>::_Vector_impl" = type { %"struct.std::_Vector_base<std::pair<int, cv::Size_<int>>, std::allocator<std::pair<int, cv::Size_<int>>>>::_Vector_impl_data" }
%"struct.std::_Vector_base<std::pair<int, cv::Size_<int>>, std::allocator<std::pair<int, cv::Size_<int>>>>::_Vector_impl_data" = type { ptr, ptr, ptr }
%"class.std::vector.0" = type { %"struct.std::_Vector_base.1" }
%"struct.std::_Vector_base.1" = type { %"struct.std::_Vector_base<long, std::allocator<long>>::_Vector_impl" }
%"struct.std::_Vector_base<long, std::allocator<long>>::_Vector_impl" = type { %"struct.std::_Vector_base<long, std::allocator<long>>::_Vector_impl_data" }
%"struct.std::_Vector_base<long, std::allocator<long>>::_Vector_impl_data" = type { ptr, ptr, ptr }
%"struct.perf::performance_metrics" = type <{ i64, i64, i32, i32, double, double, double, double, double, double, double, i32, [4 x i8] }>
%"class.perf::TestBase::_declareHelper" = type { ptr }
%"class.testing::WithParamInterface" = type { ptr }
%"class.opencv_test::TestFunctional" = type { %"class.cv::Mat", %"class.cv::Mat", %"class.cv::Mat", %"class.cv::Mat", %"class.cv::Scalar_" }
%"class.cv::Mat" = type { i32, i32, i32, i32, ptr, ptr, ptr, ptr, ptr, ptr, %"struct.cv::MatSize", %"struct.cv::MatStep" }
%"struct.cv::MatSize" = type { ptr }
%"struct.cv::MatStep" = type { ptr, [2 x i64] }
%"class.cv::Scalar_" = type { %"class.cv::Vec" }
%"class.cv::Vec" = type { %"class.cv::Matx" }
%"class.cv::Matx" = type { [4 x double] }
%"class.std::__cxx11::basic_string.8" = type { %"struct.std::__cxx11::basic_string<wchar_t>::_Alloc_hider", i64, %union.anon.12 }
%"struct.std::__cxx11::basic_string<wchar_t>::_Alloc_hider" = type { ptr }
%union.anon.12 = type { i64, [8 x i8] }
%"class.cv::Point_" = type { i32, i32 }
%"class.std::vector.13" = type { %"struct.std::_Vector_base.14" }
%"struct.std::_Vector_base.14" = type { %"struct.std::_Vector_base<cv::GCompileArg, std::allocator<cv::GCompileArg>>::_Vector_impl" }
%"struct.std::_Vector_base<cv::GCompileArg, std::allocator<cv::GCompileArg>>::_Vector_impl" = type { %"struct.std::_Vector_base<cv::GCompileArg, std::allocator<cv::GCompileArg>>::_Vector_impl_data" }
%"struct.std::_Vector_base<cv::GCompileArg, std::allocator<cv::GCompileArg>>::_Vector_impl_data" = type { ptr, ptr, ptr }
%"class.opencv_test::RenderTestFTexts_RenderFTextsPerformanceNV12OCVTest_Test" = type <{ %"class.opencv_test::RenderTestFTexts", i8, [7 x i8] }>
%"class.std::tuple" = type { %"struct.std::_Tuple_impl" }
%"struct.std::_Tuple_impl" = type { %"struct.std::_Tuple_impl.base.28", %"struct.std::_Head_base.29" }
%"struct.std::_Tuple_impl.base.28" = type { %"struct.std::_Tuple_impl.base.26", %"struct.std::_Head_base.27" }
%"struct.std::_Tuple_impl.base.26" = type { %"struct.std::_Tuple_impl.base", %"struct.std::_Head_base.25" }
%"struct.std::_Tuple_impl.base" = type <{ %"struct.std::_Tuple_impl.21", %"struct.std::_Head_base.24" }>
%"struct.std::_Tuple_impl.21" = type { %"struct.std::_Tuple_impl.22", %"struct.std::_Head_base.23" }
%"struct.std::_Tuple_impl.22" = type { %"struct.std::_Head_base" }
%"struct.std::_Head_base" = type { %"class.std::vector.13" }
%"struct.std::_Head_base.23" = type { %"class.cv::Scalar_" }
%"struct.std::_Head_base.24" = type { i32 }
%"struct.std::_Head_base.25" = type { %"class.cv::Point_" }
%"struct.std::_Head_base.27" = type { %"class.cv::Size_" }
%"struct.std::_Head_base.29" = type { %"class.std::__cxx11::basic_string.8" }
%"class.testing::internal::TestFactoryBase" = type { ptr }
%"class.testing::(anonymous namespace)::ParameterizedTestFactory.301" = type { %"class.testing::internal::TestFactoryBase", %"class.std::tuple" }

@_ZN7testing8internal12g_parameter_E = external global ptr, align 8

; Function Attrs: inlinehint mustprogress nounwind uwtable
define linkonce_odr hidden void @_ZN2cv4MatxIdLi4ELi1EEC2Ev(ptr noundef nonnull align 8 dereferenceable(32) %0) unnamed_addr #4 comdat align 2 {
  %2 = alloca ptr, align 8
  %3 = alloca i32, align 4
  store ptr %0, ptr %2, align 8, !tbaa !806
  %4 = load ptr, ptr %2, align 8
  call void @llvm.lifetime.start.p0(i64 4, ptr %3) #3
  store i32 0, ptr %3, align 4, !tbaa !9
  br label %5

5:                                                ; preds = %14, %1
  %6 = load i32, ptr %3, align 4, !tbaa !9
  %7 = icmp slt i32 %6, 4
  br i1 %7, label %9, label %8

8:                                                ; preds = %5
  call void @llvm.lifetime.end.p0(i64 4, ptr %3) #3
  br label %17

9:                                                ; preds = %5
  %10 = getelementptr inbounds nuw %"class.cv::Matx", ptr %4, i32 0, i32 0
  %11 = load i32, ptr %3, align 4, !tbaa !9
  %12 = sext i32 %11 to i64
  %13 = getelementptr inbounds [4 x double], ptr %10, i64 0, i64 %12
  store double 0.000000e+00, ptr %13, align 8, !tbaa !76
  br label %14

14:                                               ; preds = %9
  %15 = load i32, ptr %3, align 4, !tbaa !9
  %16 = add nsw i32 %15, 1
  store i32 %16, ptr %3, align 4, !tbaa !9
  br label %5, !llvm.loop !2126

17:                                               ; preds = %8
  ret void
}

; Function Attrs: inlinehint mustprogress uwtable
define linkonce_odr hidden void @_ZN2cv3VecIdLi4EEC2Ev(ptr noundef nonnull align 8 dereferenceable(32) %0) unnamed_addr #10 comdat align 2 {
  %2 = alloca ptr, align 8
  store ptr %0, ptr %2, align 8, !tbaa !804
  %3 = load ptr, ptr %2, align 8
  call void @_ZN2cv4MatxIdLi4ELi1EEC2Ev(ptr noundef nonnull align 8 dereferenceable(32) %3)
  ret void
}

; Function Attrs: inlinehint mustprogress nounwind uwtable
define linkonce_odr hidden void @_ZN7testing18WithParamInterfaceISt5tupleIJNSt7__cxx1112basic_stringIwSt11char_traitsIwESaIwEEEN2cv5Size_IiEENS8_6Point_IiEEiNS8_7Scalar_IdEESt6vectorINS8_11GCompileArgESaISG_EEEEEC2Ev(ptr noundef nonnull align 8 dereferenceable(8) %0) unnamed_addr #4 comdat align 2 {
  %2 = alloca ptr, align 8
  store ptr %0, ptr %2, align 8, !tbaa !79
  %3 = load ptr, ptr %2, align 8
  store ptr getelementptr inbounds inrange(-16, 16) ({ [4 x ptr] }, ptr @_ZTVN7testing18WithParamInterfaceISt5tupleIJNSt7__cxx1112basic_stringIwSt11char_traitsIwESaIwEEEN2cv5Size_IiEENS8_6Point_IiEEiNS8_7Scalar_IdEESt6vectorINS8_11GCompileArgESaISG_EEEEEE, i32 0, i32 0, i32 2), ptr %3, align 8, !tbaa !20
  ret void
}

; Function Attrs: inlinehint mustprogress uwtable
define linkonce_odr hidden void @_ZN2cv7Scalar_IdEC2Ev(ptr noundef nonnull align 8 dereferenceable(32) %0) unnamed_addr #10 comdat align 2 {
  %2 = alloca ptr, align 8
  store ptr %0, ptr %2, align 8, !tbaa !74
  %3 = load ptr, ptr %2, align 8
  call void @_ZN2cv3VecIdLi4EEC2Ev(ptr noundef nonnull align 8 dereferenceable(32) %3)
  %4 = getelementptr inbounds nuw %"class.cv::Matx", ptr %3, i32 0, i32 0
  %5 = getelementptr inbounds [4 x double], ptr %4, i64 0, i64 3
  store double 0.000000e+00, ptr %5, align 8, !tbaa !76
  %6 = getelementptr inbounds nuw %"class.cv::Matx", ptr %3, i32 0, i32 0
  %7 = getelementptr inbounds [4 x double], ptr %6, i64 0, i64 2
  store double 0.000000e+00, ptr %7, align 8, !tbaa !76
  %8 = getelementptr inbounds nuw %"class.cv::Matx", ptr %3, i32 0, i32 0
  %9 = getelementptr inbounds [4 x double], ptr %8, i64 0, i64 1
  store double 0.000000e+00, ptr %9, align 8, !tbaa !76
  %10 = getelementptr inbounds nuw %"class.cv::Matx", ptr %3, i32 0, i32 0
  %11 = getelementptr inbounds [4 x double], ptr %10, i64 0, i64 0
  store double 0.000000e+00, ptr %11, align 8, !tbaa !76
  ret void
}

; Function Attrs: inlinehint mustprogress uwtable
define linkonce_odr hidden void @_ZN4perf17TestBaseWithParamISt5tupleIJNSt7__cxx1112basic_stringIwSt11char_traitsIwESaIwEEEN2cv5Size_IiEENS8_6Point_IiEEiNS8_7Scalar_IdEESt6vectorINS8_11GCompileArgESaISG_EEEEEC2Ev(ptr noundef nonnull align 8 dereferenceable(256) %0) unnamed_addr #10 comdat align 2 {
  %2 = alloca ptr, align 8
  store ptr %0, ptr %2, align 8, !tbaa !847
  %3 = load ptr, ptr %2, align 8
  call void @_ZN4perf8TestBaseC2Ev(ptr noundef nonnull align 8 dereferenceable(248) %3)
  %4 = getelementptr inbounds i8, ptr %3, i64 248
  call void @_ZN7testing18WithParamInterfaceISt5tupleIJNSt7__cxx1112basic_stringIwSt11char_traitsIwESaIwEEEN2cv5Size_IiEENS8_6Point_IiEEiNS8_7Scalar_IdEESt6vectorINS8_11GCompileArgESaISG_EEEEEC2Ev(ptr noundef nonnull align 8 dereferenceable(8) %4) #3
  store ptr getelementptr inbounds inrange(-16, 56) ({ [9 x ptr], [4 x ptr] }, ptr @_ZTVN4perf17TestBaseWithParamISt5tupleIJNSt7__cxx1112basic_stringIwSt11char_traitsIwESaIwEEEN2cv5Size_IiEENS8_6Point_IiEEiNS8_7Scalar_IdEESt6vectorINS8_11GCompileArgESaISG_EEEEEE, i32 0, i32 0, i32 2), ptr %3, align 8, !tbaa !20
  %5 = getelementptr inbounds i8, ptr %3, i64 248
  store ptr getelementptr inbounds inrange(-16, 16) ({ [9 x ptr], [4 x ptr] }, ptr @_ZTVN4perf17TestBaseWithParamISt5tupleIJNSt7__cxx1112basic_stringIwSt11char_traitsIwESaIwEEEN2cv5Size_IiEENS8_6Point_IiEEiNS8_7Scalar_IdEESt6vectorINS8_11GCompileArgESaISG_EEEEEE, i32 0, i32 1, i32 2), ptr %5, align 8, !tbaa !20
  ret void
}

; Function Attrs: inlinehint mustprogress uwtable
define linkonce_odr hidden void @_ZN11opencv_test14TestFunctionalC2Ev(ptr noundef nonnull align 8 dereferenceable(416) %0) unnamed_addr #10 comdat align 2 personality ptr @__gxx_personality_v0 {
  %2 = alloca ptr, align 8
  %3 = alloca ptr, align 8
  %4 = alloca i32, align 4
  store ptr %0, ptr %2, align 8, !tbaa !845
  %5 = load ptr, ptr %2, align 8
  %6 = getelementptr inbounds nuw %"class.opencv_test::TestFunctional", ptr %5, i32 0, i32 0
  call void @_ZN2cv3MatC1Ev(ptr noundef nonnull align 8 dereferenceable(96) %6) #3
  %7 = getelementptr inbounds nuw %"class.opencv_test::TestFunctional", ptr %5, i32 0, i32 1
  call void @_ZN2cv3MatC1Ev(ptr noundef nonnull align 8 dereferenceable(96) %7) #3
  %8 = getelementptr inbounds nuw %"class.opencv_test::TestFunctional", ptr %5, i32 0, i32 2
  call void @_ZN2cv3MatC1Ev(ptr noundef nonnull align 8 dereferenceable(96) %8) #3
  %9 = getelementptr inbounds nuw %"class.opencv_test::TestFunctional", ptr %5, i32 0, i32 3
  call void @_ZN2cv3MatC1Ev(ptr noundef nonnull align 8 dereferenceable(96) %9) #3
  %10 = getelementptr inbounds nuw %"class.opencv_test::TestFunctional", ptr %5, i32 0, i32 4
  invoke void @_ZN2cv7Scalar_IdEC2Ev(ptr noundef nonnull align 8 dereferenceable(32) %10)
          to label %11 unwind label %12

11:                                               ; preds = %1
  ret void

12:                                               ; preds = %1
  %13 = landingpad { ptr, i32 }
          cleanup
  %14 = extractvalue { ptr, i32 } %13, 0
  store ptr %14, ptr %3, align 8
  %15 = extractvalue { ptr, i32 } %13, 1
  store i32 %15, ptr %4, align 4
  call void @_ZN2cv3MatD1Ev(ptr noundef nonnull align 8 dereferenceable(96) %9) #3
  call void @_ZN2cv3MatD1Ev(ptr noundef nonnull align 8 dereferenceable(96) %8) #3
  call void @_ZN2cv3MatD1Ev(ptr noundef nonnull align 8 dereferenceable(96) %7) #3
  call void @_ZN2cv3MatD1Ev(ptr noundef nonnull align 8 dereferenceable(96) %6) #3
  br label %16

16:                                               ; preds = %12
  %17 = load ptr, ptr %3, align 8
  %18 = load i32, ptr %4, align 4
  %19 = insertvalue { ptr, i32 } poison, ptr %17, 0
  %20 = insertvalue { ptr, i32 } %19, i32 %18, 1
  resume { ptr, i32 } %20
}

; Function Attrs: inlinehint mustprogress uwtable
define linkonce_odr hidden void @_ZN11opencv_test14TestPerfParamsISt5tupleIJNSt7__cxx1112basic_stringIwSt11char_traitsIwESaIwEEEN2cv5Size_IiEENS8_6Point_IiEEiNS8_7Scalar_IdEESt6vectorINS8_11GCompileArgESaISG_EEEEEC2Ev(ptr noundef nonnull align 8 dereferenceable(672) %0) unnamed_addr #10 comdat align 2 personality ptr @__gxx_personality_v0 {
  %2 = alloca ptr, align 8
  %3 = alloca ptr, align 8
  %4 = alloca i32, align 4
  store ptr %0, ptr %2, align 8, !tbaa !402
  %5 = load ptr, ptr %2, align 8
  %6 = getelementptr inbounds i8, ptr %5, i64 256
  call void @_ZN11opencv_test14TestFunctionalC2Ev(ptr noundef nonnull align 8 dereferenceable(416) %6)
  invoke void @_ZN4perf17TestBaseWithParamISt5tupleIJNSt7__cxx1112basic_stringIwSt11char_traitsIwESaIwEEEN2cv5Size_IiEENS8_6Point_IiEEiNS8_7Scalar_IdEESt6vectorINS8_11GCompileArgESaISG_EEEEEC2Ev(ptr noundef nonnull align 8 dereferenceable(256) %5)
          to label %7 unwind label %9

7:                                                ; preds = %1
  store ptr getelementptr inbounds inrange(-16, 56) ({ [9 x ptr], [4 x ptr] }, ptr @_ZTVN11opencv_test14TestPerfParamsISt5tupleIJNSt7__cxx1112basic_stringIwSt11char_traitsIwESaIwEEEN2cv5Size_IiEENS8_6Point_IiEEiNS8_7Scalar_IdEESt6vectorINS8_11GCompileArgESaISG_EEEEEE, i32 0, i32 0, i32 2), ptr %5, align 8, !tbaa !20
  %8 = getelementptr inbounds i8, ptr %5, i64 248
  store ptr getelementptr inbounds inrange(-16, 16) ({ [9 x ptr], [4 x ptr] }, ptr @_ZTVN11opencv_test14TestPerfParamsISt5tupleIJNSt7__cxx1112basic_stringIwSt11char_traitsIwESaIwEEEN2cv5Size_IiEENS8_6Point_IiEEiNS8_7Scalar_IdEESt6vectorINS8_11GCompileArgESaISG_EEEEEE, i32 0, i32 1, i32 2), ptr %8, align 8, !tbaa !20
  ret void

9:                                                ; preds = %1
  %10 = landingpad { ptr, i32 }
          cleanup
  %11 = extractvalue { ptr, i32 } %10, 0
  store ptr %11, ptr %3, align 8
  %12 = extractvalue { ptr, i32 } %10, 1
  store i32 %12, ptr %4, align 4
  %13 = getelementptr inbounds i8, ptr %5, i64 256
  call void @_ZN11opencv_test14TestFunctionalD2Ev(ptr noundef nonnull align 8 dereferenceable(416) %13) #3
  br label %14

14:                                               ; preds = %9
  %15 = load ptr, ptr %3, align 8
  %16 = load i32, ptr %4, align 4
  %17 = insertvalue { ptr, i32 } poison, ptr %15, 0
  %18 = insertvalue { ptr, i32 } %17, i32 %16, 1
  resume { ptr, i32 } %18
}

; Function Attrs: inlinehint mustprogress uwtable
define linkonce_odr hidden void @_ZN11opencv_test16RenderTestFTextsC2Ev(ptr noundef nonnull align 8 dereferenceable(672) %0) unnamed_addr #10 comdat align 2 {
  %2 = alloca ptr, align 8
  store ptr %0, ptr %2, align 8, !tbaa !843
  %3 = load ptr, ptr %2, align 8
  call void @_ZN11opencv_test14TestPerfParamsISt5tupleIJNSt7__cxx1112basic_stringIwSt11char_traitsIwESaIwEEEN2cv5Size_IiEENS8_6Point_IiEEiNS8_7Scalar_IdEESt6vectorINS8_11GCompileArgESaISG_EEEEEC2Ev(ptr noundef nonnull align 8 dereferenceable(672) %3)
  store ptr getelementptr inbounds inrange(-16, 56) ({ [9 x ptr], [4 x ptr] }, ptr @_ZTVN11opencv_test16RenderTestFTextsE, i32 0, i32 0, i32 2), ptr %3, align 8, !tbaa !20
  %4 = getelementptr inbounds i8, ptr %3, i64 248
  store ptr getelementptr inbounds inrange(-16, 16) ({ [9 x ptr], [4 x ptr] }, ptr @_ZTVN11opencv_test16RenderTestFTextsE, i32 0, i32 1, i32 2), ptr %4, align 8, !tbaa !20
  ret void
}

; Function Attrs: mustprogress nounwind uwtable
define linkonce_odr hidden noundef nonnull align 8 dereferenceable(8) ptr @_ZN7testing18WithParamInterfaceISt5tupleIJNSt7__cxx1112basic_stringIwSt11char_traitsIwESaIwEEEN2cv5Size_IiEENS8_6Point_IiEEiNS8_7Scalar_IdEESt6vectorINS8_11GCompileArgESaISG_EEEEE19GetParameterPtrRef_Ev() #9 comdat align 2 {
  ret ptr @_ZN7testing8internal12g_parameter_E
}

; Function Attrs: mustprogress uwtable
define linkonce_odr hidden void @_ZN11opencv_test56RenderTestFTexts_RenderFTextsPerformanceNV12OCVTest_TestC2Ev(ptr noundef nonnull align 8 dereferenceable(673) %0) unnamed_addr #6 comdat align 2 {
  %2 = alloca ptr, align 8
  store ptr %0, ptr %2, align 8, !tbaa !141
  %3 = load ptr, ptr %2, align 8
  call void @_ZN11opencv_test16RenderTestFTextsC2Ev(ptr noundef nonnull align 8 dereferenceable(672) %3)
  store ptr getelementptr inbounds inrange(-16, 56) ({ [9 x ptr], [4 x ptr] }, ptr @_ZTVN11opencv_test56RenderTestFTexts_RenderFTextsPerformanceNV12OCVTest_TestE, i32 0, i32 0, i32 2), ptr %3, align 8, !tbaa !20
  %4 = getelementptr inbounds i8, ptr %3, i64 248
  store ptr getelementptr inbounds inrange(-16, 16) ({ [9 x ptr], [4 x ptr] }, ptr @_ZTVN11opencv_test56RenderTestFTexts_RenderFTextsPerformanceNV12OCVTest_TestE, i32 0, i32 1, i32 2), ptr %4, align 8, !tbaa !20
  %5 = getelementptr inbounds nuw %"class.opencv_test::RenderTestFTexts_RenderFTextsPerformanceNV12OCVTest_Test", ptr %3, i32 0, i32 1
  store i8 0, ptr %5, align 8, !tbaa !143
  ret void
}

; Function Attrs: mustprogress uwtable
define linkonce_odr hidden void @_ZN7testing18WithParamInterfaceISt5tupleIJNSt7__cxx1112basic_stringIwSt11char_traitsIwESaIwEEEN2cv5Size_IiEENS8_6Point_IiEEiNS8_7Scalar_IdEESt6vectorINS8_11GCompileArgESaISG_EEEEE8SetParamEPKSJ_(ptr noundef %0) #6 comdat align 2 {
  %2 = alloca ptr, align 8
  store ptr %0, ptr %2, align 8, !tbaa !81
  %3 = load ptr, ptr %2, align 8, !tbaa !81
  %4 = call noundef nonnull align 8 dereferenceable(8) ptr @_ZN7testing18WithParamInterfaceISt5tupleIJNSt7__cxx1112basic_stringIwSt11char_traitsIwESaIwEEEN2cv5Size_IiEENS8_6Point_IiEEiNS8_7Scalar_IdEESt6vectorINS8_11GCompileArgESaISG_EEEEE19GetParameterPtrRef_Ev()
  store ptr %3, ptr %4, align 8, !tbaa !81
  ret void
}

; Function Attrs: mustprogress uwtable
define internal noundef ptr @_ZN7testing12_GLOBAL__N_124ParameterizedTestFactoryIN11opencv_test56RenderTestFTexts_RenderFTextsPerformanceNV12OCVTest_TestEE10CreateTestEv(ptr noundef nonnull align 8 dereferenceable(120) %0) unnamed_addr #6 align 2 personality ptr @__gxx_personality_v0 {
  %2 = alloca ptr, align 8
  %3 = alloca ptr, align 8
  %4 = alloca i32, align 4
  store ptr %0, ptr %2, align 8, !tbaa !956
  %5 = load ptr, ptr %2, align 8
  %6 = getelementptr inbounds nuw %"class.testing::(anonymous namespace)::ParameterizedTestFactory.301", ptr %5, i32 0, i32 1
  call void @_ZN7testing18WithParamInterfaceISt5tupleIJNSt7__cxx1112basic_stringIwSt11char_traitsIwESaIwEEEN2cv5Size_IiEENS8_6Point_IiEEiNS8_7Scalar_IdEESt6vectorINS8_11GCompileArgESaISG_EEEEE8SetParamEPKSJ_(ptr noundef %6)
  %7 = call noalias noundef nonnull ptr @_Znwm(i64 noundef 680) #27
  invoke void @_ZN11opencv_test56RenderTestFTexts_RenderFTextsPerformanceNV12OCVTest_TestC2Ev(ptr noundef nonnull align 8 dereferenceable(673) %7)
          to label %8 unwind label %9

8:                                                ; preds = %1
  ret ptr %7

9:                                                ; preds = %1
  %10 = landingpad { ptr, i32 }
          cleanup
  %11 = extractvalue { ptr, i32 } %10, 0
  store ptr %11, ptr %3, align 8
  %12 = extractvalue { ptr, i32 } %10, 1
  store i32 %12, ptr %4, align 4
  call void @_ZdlPv(ptr noundef %7) #28
  br label %13

13:                                               ; preds = %9
  %14 = load ptr, ptr %3, align 8
  %15 = load i32, ptr %4, align 4
  %16 = insertvalue { ptr, i32 } poison, ptr %14, 0
  %17 = insertvalue { ptr, i32 } %16, i32 %15, 1
  resume { ptr, i32 } %17
}